target datalayout = "e-m:e-p270:32:32-p271:32:32-p272:64:64-i64:64-i128:128-f80:128-n8:16:32:64-S128"
target triple = "x86_64-pc-linux-gnu"

%"class.sls::bv_lookahead" = type { %class.bv_util, ptr, ptr, ptr, %"struct.sls::bv_lookahead::config", %"struct.sls::bv_lookahead::stats", %"class.sls::bvect", %"class.sls::bvect", %class.ptr_vector, %class.svector.1, %class.vector.3, %class.obj_mark, double, double, %"class.sls::bvect", ptr, ptr, %class.ptr_vector, %class.vector.4, %class.obj_mark, i32, %class.tracked_uint_set, i32, i32 }
%class.bv_util = type { %class.bv_recognizers, ptr, ptr }
%class.bv_recognizers = type { i32 }
%"struct.sls::bv_lookahead::config" = type <{ i8, [7 x i8], double, i32, i32, i8, i8, i8, i8, i32, i32, i32, i32, i8, [3 x i8], i32, i32, i32, i8, [3 x i8], double, double, i8, [7 x i8], double, i8, i8, i8, [5 x i8] }>
%"struct.sls::bv_lookahead::stats" = type { i32, i32, i32, i32, i32, i32 }
%class.svector.1 = type { %class.vector.2 }
%class.vector.2 = type { ptr }
%class.vector.3 = type { ptr }
%"class.sls::bvect" = type <{ %class.svector, i32, i32, i32, [4 x i8] }>
%class.svector = type { %class.vector }
%class.vector = type { ptr }
%class.ptr_vector = type { %class.vector.0 }
%class.vector.0 = type { ptr }
%class.vector.4 = type { ptr }
%class.obj_mark = type { [8 x i8], %class.bit_vector }
%class.bit_vector = type { i32, i32, ptr }
%class.tracked_uint_set = type { %class.svector.5, %class.svector }
%class.svector.5 = type { %class.vector.6 }
%class.vector.6 = type { ptr }
%"class.sls::bv_eval" = type <{ ptr, ptr, ptr, %"class.sls::bv_lookahead", %class.bv_util, %"class.sls::bv_fixed", [8 x i8], %class.ptr_vector, %class.random_gen, %"struct.sls::bv_eval::config", %class.svector.7, i32, i32, %class.svector.9, %class.svector.11, %class.scoped_ptr_vector, %"class.sls::bvect", %"class.sls::bvect", %"class.sls::bvect", %"class.sls::bvect", %"class.sls::bvect", %"class.sls::bvect", %"class.sls::bvect", %"class.sls::bvect", %"class.sls::bvect", %"class.sls::bvect", %"class.sls::bvect", %"class.sls::bvect", %"class.sls::bvect", i8, [7 x i8] }>
%"class.sls::bv_fixed" = type { ptr, ptr, ptr, ptr, ptr }
%class.random_gen = type { i32 }
%"struct.sls::bv_eval::config" = type { i32 }
%class.svector.7 = type { %class.vector.8 }
%class.vector.8 = type { ptr }
%class.svector.9 = type { %class.vector.10 }
%class.vector.10 = type { ptr }
%class.svector.11 = type { %class.vector.12 }
%class.vector.12 = type { ptr }
%class.scoped_ptr_vector = type { %class.ptr_vector.13 }
%class.ptr_vector.13 = type { %class.vector.14 }
%class.vector.14 = type { ptr }

; Function Attrs: mustprogress uwtable
define linkonce_odr hidden noundef zeroext i1 @_ZNK3sls7bv_eval5bval0EP4expr(ptr noundef nonnull align 8 dereferenceable(865) %0, ptr noundef %1) #4 comdat align 2 {
  %3 = alloca ptr, align 8
  %4 = alloca ptr, align 8
  store ptr %0, ptr %3, align 8, !tbaa !8
  store ptr %1, ptr %4, align 8, !tbaa !173
  %5 = load ptr, ptr %3, align 8
  %6 = getelementptr inbounds nuw %"class.sls::bv_eval", ptr %5, i32 0, i32 1
  %7 = load ptr, ptr %6, align 8, !tbaa !64
  %8 = load ptr, ptr %4, align 8, !tbaa !173
  %9 = call noundef zeroext i1 @_ZN3sls7context7is_trueEP4expr(ptr noundef nonnull align 8 dereferenceable(321) %7, ptr noundef %8)
  ret i1 %9
}

; Function Attrs: mustprogress uwtable
define hidden noundef zeroext i1 @_ZN3sls12bv_lookahead17assertion_is_trueEP4expr(ptr noundef nonnull align 8 dereferenceable(400) %0, ptr noundef %1) #4 align 2 {
  %3 = alloca i1, align 1
  %4 = alloca ptr, align 8
  %5 = alloca ptr, align 8
  store ptr %0, ptr %4, align 8, !tbaa !3
  store ptr %1, ptr %5, align 8, !tbaa !173
  %6 = load ptr, ptr %4, align 8
  %7 = getelementptr inbounds nuw %"class.sls::bv_lookahead", ptr %6, i32 0, i32 4
  %8 = getelementptr inbounds nuw %"struct.sls::bv_lookahead::config", ptr %7, i32 0, i32 25
  %9 = load i8, ptr %8, align 8, !tbaa !164, !range !138, !noundef !139
  %10 = trunc i8 %9 to i1
  br i1 %10, label %11, label %16

11:                                               ; preds = %2
  %12 = getelementptr inbounds nuw %"class.sls::bv_lookahead", ptr %6, i32 0, i32 1
  %13 = load ptr, ptr %12, align 8, !tbaa !140
  %14 = load ptr, ptr %5, align 8, !tbaa !173
  %15 = call noundef zeroext i1 @_ZNK3sls7bv_eval14get_bool_valueEP4expr(ptr noundef nonnull align 8 dereferenceable(865) %13, ptr noundef %14)
  store i1 %15, ptr %3, align 1
  br label %35

16:                                               ; preds = %2
  %17 = getelementptr inbounds nuw %"class.sls::bv_lookahead", ptr %6, i32 0, i32 1
  %18 = load ptr, ptr %17, align 8, !tbaa !140
  %19 = load ptr, ptr %5, align 8, !tbaa !173
  %20 = call noundef zeroext i1 @_ZNK3sls7bv_eval9can_eval1EP4expr(ptr noundef nonnull align 8 dereferenceable(865) %18, ptr noundef %19)
  br i1 %20, label %21, label %33

21:                                               ; preds = %16
  %22 = getelementptr inbounds nuw %"class.sls::bv_lookahead", ptr %6, i32 0, i32 1
  %23 = load ptr, ptr %22, align 8, !tbaa !140
  %24 = load ptr, ptr %5, align 8, !tbaa !173
  %25 = call noundef zeroext i1 @_ZNK3sls7bv_eval5bval0EP4expr(ptr noundef nonnull align 8 dereferenceable(865) %23, ptr noundef %24)
  %26 = zext i1 %25 to i32
  %27 = getelementptr inbounds nuw %"class.sls::bv_lookahead", ptr %6, i32 0, i32 1
  %28 = load ptr, ptr %27, align 8, !tbaa !140
  %29 = load ptr, ptr %5, align 8, !tbaa !173
  %30 = call noundef zeroext i1 @_ZNK3sls7bv_eval5bval1EP4expr(ptr noundef nonnull align 8 dereferenceable(865) %28, ptr noundef %29)
  %31 = zext i1 %30 to i32
  %32 = icmp eq i32 %26, %31
  br label %33

33:                                               ; preds = %21, %16
  %34 = phi i1 [ true, %16 ], [ %32, %21 ]
  store i1 %34, ptr %3, align 1
  br label %35

35:                                               ; preds = %33, %11
  %36 = load i1, ptr %3, align 1
  ret i1 %36
}