; Function Attrs: mustprogress uwtable
define hidden noundef zeroext i1 @_ZN3sls12bv_lookahead17assertion_is_trueEP4expr(ptr noundef nonnull readonly align 8 captures(none) dereferenceable(400) %0, ptr noundef %1) local_unnamed_addr #3 align 2 {
  %3 = getelementptr inbounds nuw i8, ptr %0, i64 144
  %4 = load i8, ptr %3, align 8, !tbaa !163, !range !94, !noundef !95
  %5 = trunc nuw i8 %4 to i1
  %6 = getelementptr inbounds nuw i8, ptr %0, i64 24
  %7 = load ptr, ptr %6, align 8, !tbaa !96
  br i1 %5, label %8, label %10

8:                                                ; preds = %2
  %9 = tail call noundef zeroext i1 @_ZNK3sls7bv_eval14get_bool_valueEP4expr(ptr noundef nonnull align 8 dereferenceable(865) %7, ptr noundef %1)
  br label %21

10:                                               ; preds = %2
  %11 = tail call noundef zeroext i1 @_ZNK3sls7bv_eval9can_eval1EP4expr(ptr noundef nonnull align 8 dereferenceable(865) %7, ptr noundef %1)
  br i1 %11, label %12, label %21

12:                                               ; preds = %10
  %13 = load ptr, ptr %6, align 8, !tbaa !96
  %14 = getelementptr inbounds nuw i8, ptr %13, i64 8
  %15 = load ptr, ptr %14, align 8, !tbaa !62
  %16 = tail call noundef zeroext i1 @_ZN3sls7context7is_trueEP4expr(ptr noundef nonnull align 8 dereferenceable(321) %15, ptr noundef %1)
  %17 = load ptr, ptr %6, align 8, !tbaa !96
  %18 = tail call noundef zeroext i1 @_ZNK3sls7bv_eval5bval1EP4expr(ptr noundef nonnull align 8 dereferenceable(865) %17, ptr noundef %1)
  %19 = xor i1 %16, %18
  %20 = xor i1 %19, true
  br label %21

21:                                               ; preds = %10, %12, %8
  %.0 = phi i1 [ %9, %8 ], [ true, %10 ], [ %20, %12 ]
  ret i1 %.0
}